; Function Attrs: mustprogress nounwind uwtable
define dso_local void @_ZN4llvm18AArch64InstPrinter14printMemExtendEPKNS_6MCInstEjRNS_11raw_ostreamEcj(ptr noundef nonnull align 8 dereferenceable(58) %0, ptr nocapture noundef readonly %1, i32 noundef %2, ptr noundef nonnull align 8 dereferenceable(48) %3, i8 noundef signext %4, i32 noundef %5) local_unnamed_addr #1 align 2 {
  %7 = getelementptr inbounds nuw i8, ptr %1, i64 16
  %8 = zext i32 %2 to i64
  %9 = load ptr, ptr %7, align 8
  %10 = getelementptr inbounds %"class.llvm::MCOperand", ptr %9, i64 %8, i32 1
  %11 = load i64, ptr %10, align 8
  %12 = icmp ne i64 %11, 0
  %13 = add i32 %2, 1
  %14 = zext i32 %13 to i64
  %15 = getelementptr inbounds %"class.llvm::MCOperand", ptr %9, i64 %14, i32 1
  %16 = load i64, ptr %15, align 8
  %17 = icmp ne i64 %16, 0
  tail call void @_ZN4llvm18AArch64InstPrinter18printMemExtendImplEbbjcRNS_11raw_ostreamE(ptr noundef nonnull align 8 dereferenceable(58) %0, i1 noundef zeroext %12, i1 noundef zeroext %17, i32 noundef %5, i8 noundef signext %4, ptr noundef nonnull align 8 dereferenceable(48) %3)
  ret void
}